target datalayout = "e-m:e-p270:32:32-p271:32:32-p272:64:64-i64:64-i128:128-f80:128-n8:16:32:64-S128"
target triple = "x86_64-pc-linux-gnu"

@.str.74 = private unnamed_addr constant [10 x i8] c"GPS ASCII\00", align 1
@hf_vrt_context_gps_ascii_oui = internal global i32 0, align 4
@hf_vrt_context_gps_ascii_size = internal global i32 0, align 4
@hf_vrt_context_gps_ascii_data = internal global i32 0, align 4

; Function Attrs: null_pointer_is_valid sspstrong uwtable
define internal i32 @dissect_context_gps_ascii(ptr noundef %0, ptr noundef %1, i32 noundef %2) #0 {
  %4 = alloca ptr, align 8
  %5 = alloca ptr, align 8
  %6 = alloca i32, align 4
  %7 = alloca i32, align 4
  %8 = alloca ptr, align 8
  store ptr %0, ptr %4, align 8
  store ptr %1, ptr %5, align 8
  store i32 %2, ptr %6, align 4
  call void @llvm.lifetime.start.p0(i64 4, ptr %7) #7
  %9 = load ptr, ptr %5, align 8
  %10 = load i32, ptr %6, align 4
  %11 = add i32 %10, 4
  %12 = call i32 @tvb_get_ntohl(ptr noundef %9, i32 noundef %11)
  store i32 %12, ptr %7, align 4
  call void @llvm.lifetime.start.p0(i64 8, ptr %8) #7
  %13 = load ptr, ptr %4, align 8
  %14 = load ptr, ptr %5, align 8
  %15 = load i32, ptr %6, align 4
  %16 = load i32, ptr %7, align 4
  %17 = mul i32 %16, 4
  %18 = add i32 8, %17
  %19 = call ptr @proto_tree_add_subtree(ptr noundef %13, ptr noundef %14, i32 noundef %15, i32 noundef %18, i32 noundef 16, ptr noundef null, ptr noundef @.str.74)
  store ptr %19, ptr %8, align 8
  %20 = load ptr, ptr %8, align 8
  %21 = load i32, ptr @hf_vrt_context_gps_ascii_oui, align 4
  %22 = load ptr, ptr %5, align 8
  %23 = load i32, ptr %6, align 4
  %24 = add i32 %23, 1
  %25 = call ptr @proto_tree_add_item(ptr noundef %20, i32 noundef %21, ptr noundef %22, i32 noundef %24, i32 noundef 3, i32 noundef 0)
  %26 = load ptr, ptr %8, align 8
  %27 = load i32, ptr @hf_vrt_context_gps_ascii_size, align 4
  %28 = load ptr, ptr %5, align 8
  %29 = load i32, ptr %6, align 4
  %30 = add i32 %29, 4
  %31 = call ptr @proto_tree_add_item(ptr noundef %26, i32 noundef %27, ptr noundef %28, i32 noundef %30, i32 noundef 4, i32 noundef 0)
  %32 = load i32, ptr %7, align 4
  %33 = icmp ugt i32 %32, 0
  br i1 %33, label %34, label %43

34:                                               ; preds = %3
  %35 = load ptr, ptr %8, align 8
  %36 = load i32, ptr @hf_vrt_context_gps_ascii_data, align 4
  %37 = load ptr, ptr %5, align 8
  %38 = load i32, ptr %6, align 4
  %39 = add i32 %38, 8
  %40 = load i32, ptr %7, align 4
  %41 = mul i32 %40, 4
  %42 = call ptr @proto_tree_add_item(ptr noundef %35, i32 noundef %36, ptr noundef %37, i32 noundef %39, i32 noundef %41, i32 noundef 0)
  br label %43

43:                                               ; preds = %34, %3
  %44 = load i32, ptr %7, align 4
  %45 = mul i32 %44, 4
  call void @llvm.lifetime.end.p0(i64 8, ptr %8) #7
  call void @llvm.lifetime.end.p0(i64 4, ptr %7) #7
  ret i32 %45
}