; Function Attrs: null_pointer_is_valid sspstrong uwtable
define internal range(i32 0, -3) i32 @dissect_context_gps_ascii(ptr noundef %0, ptr noundef %1, i32 noundef %2) #0 {
  %4 = add i32 %2, 4
  %5 = tail call i32 @tvb_get_ntohl(ptr noundef %1, i32 noundef %4)
  %6 = shl i32 %5, 2
  %7 = add i32 %6, 8
  %8 = tail call ptr @proto_tree_add_subtree(ptr noundef %0, ptr noundef %1, i32 noundef %2, i32 noundef %7, i32 noundef 16, ptr noundef null, ptr noundef nonnull @.str.74)
  %9 = load i32, ptr @hf_vrt_context_gps_ascii_oui, align 4
  %10 = add i32 %2, 1
  %11 = tail call ptr @proto_tree_add_item(ptr noundef %8, i32 noundef %9, ptr noundef %1, i32 noundef %10, i32 noundef 3, i32 noundef 0)
  %12 = load i32, ptr @hf_vrt_context_gps_ascii_size, align 4
  %13 = tail call ptr @proto_tree_add_item(ptr noundef %8, i32 noundef %12, ptr noundef %1, i32 noundef %4, i32 noundef 4, i32 noundef 0)
  %.not = icmp eq i32 %5, 0
  br i1 %.not, label %18, label %14

14:                                               ; preds = %3
  %15 = load i32, ptr @hf_vrt_context_gps_ascii_data, align 4
  %16 = add i32 %2, 8
  %17 = tail call ptr @proto_tree_add_item(ptr noundef %8, i32 noundef %15, ptr noundef %1, i32 noundef %16, i32 noundef %6, i32 noundef 0)
  br label %18

18:                                               ; preds = %14, %3
  ret i32 %6
}